target datalayout = "e-m:e-p270:32:32-p271:32:32-p272:64:64-i64:64-i128:128-f80:128-n8:16:32:64-S128"
target triple = "x86_64-pc-linux-gnu"

%struct.expert_field = type { i32, i32 }

@ei_gsm_a_gm_extraneous_data = internal global %struct.expert_field zeroinitializer, align 4
@.str.83 = private unnamed_addr constant [1 x i8] zeroinitializer, align 1
@hf_gsm_a_gmm_ptmsi_sig2 = internal global i32 0, align 4
@.str.1083 = private unnamed_addr constant [3 x i8] c"%s\00", align 1

; Function Attrs: null_pointer_is_valid sspstrong uwtable
define internal zeroext i16 @de_gmm_ptmsi_sig2(ptr noundef %0, ptr noundef %1, ptr noundef %2, i32 noundef %3, i32 noundef %4, ptr noundef %5, i32 noundef %6) #1 {
  %8 = alloca ptr, align 8
  %9 = alloca ptr, align 8
  %10 = alloca ptr, align 8
  %11 = alloca i32, align 4
  %12 = alloca i32, align 4
  %13 = alloca ptr, align 8
  %14 = alloca i32, align 4
  %15 = alloca i32, align 4
  %16 = alloca ptr, align 8
  store ptr %0, ptr %8, align 8
  store ptr %1, ptr %9, align 8
  store ptr %2, ptr %10, align 8
  store i32 %3, ptr %11, align 4
  store i32 %4, ptr %12, align 4
  store ptr %5, ptr %13, align 8
  store i32 %6, ptr %14, align 4
  call void @llvm.lifetime.start.p0(i64 4, ptr %15) #6
  call void @llvm.lifetime.start.p0(i64 8, ptr %16) #6
  %17 = load i32, ptr %11, align 4
  store i32 %17, ptr %15, align 4
  %18 = load ptr, ptr %9, align 8
  %19 = load i32, ptr @hf_gsm_a_gmm_ptmsi_sig2, align 4
  %20 = load ptr, ptr %8, align 8
  %21 = load i32, ptr %15, align 4
  %22 = call ptr @proto_tree_add_item(ptr noundef %18, i32 noundef %19, ptr noundef %20, i32 noundef %21, i32 noundef 3, i32 noundef 0)
  store ptr %22, ptr %16, align 8
  %23 = load ptr, ptr %16, align 8
  %24 = load ptr, ptr %13, align 8
  %25 = icmp ne ptr %24, null
  br i1 %25, label %26, label %28

26:                                               ; preds = %7
  %27 = load ptr, ptr %13, align 8
  br label %29

28:                                               ; preds = %7
  br label %29

29:                                               ; preds = %28, %26
  %30 = phi ptr [ %27, %26 ], [ @.str.83, %28 ]
  call void (ptr, ptr, ...) @proto_item_append_text(ptr noundef %23, ptr noundef @.str.1083, ptr noundef %30)
  %31 = load i32, ptr %15, align 4
  %32 = add i32 %31, 3
  store i32 %32, ptr %15, align 4
  %33 = load i32, ptr %12, align 4
  %34 = load i32, ptr %15, align 4
  %35 = load i32, ptr %11, align 4
  %36 = sub i32 %34, %35
  %37 = icmp ugt i32 %33, %36
  br i1 %37, label %38, label %56

38:                                               ; preds = %29
  %39 = load ptr, ptr %9, align 8
  %40 = load ptr, ptr %10, align 8
  %41 = load ptr, ptr %8, align 8
  %42 = load i32, ptr %15, align 4
  %43 = load i32, ptr %12, align 4
  %44 = load i32, ptr %15, align 4
  %45 = load i32, ptr %11, align 4
  %46 = sub i32 %44, %45
  %47 = sub i32 %43, %46
  %48 = call ptr @proto_tree_add_expert(ptr noundef %39, ptr noundef %40, ptr noundef @ei_gsm_a_gm_extraneous_data, ptr noundef %41, i32 noundef %42, i32 noundef %47)
  %49 = load i32, ptr %12, align 4
  %50 = load i32, ptr %15, align 4
  %51 = load i32, ptr %11, align 4
  %52 = sub i32 %50, %51
  %53 = sub i32 %49, %52
  %54 = load i32, ptr %15, align 4
  %55 = add i32 %54, %53
  store i32 %55, ptr %15, align 4
  br label %56

56:                                               ; preds = %38, %29
  %57 = load i32, ptr %15, align 4
  %58 = load i32, ptr %11, align 4
  %59 = sub i32 %57, %58
  %60 = trunc i32 %59 to i16
  call void @llvm.lifetime.end.p0(i64 8, ptr %16) #6
  call void @llvm.lifetime.end.p0(i64 4, ptr %15) #6
  ret i16 %60
}