; Function Attrs: null_pointer_is_valid sspstrong uwtable
define internal noundef zeroext i16 @de_gmm_ptmsi_sig2(ptr noundef %0, ptr noundef %1, ptr noundef %2, i32 noundef %3, i32 noundef %4, ptr noundef %5, i32 %6) #1 {
  %8 = load i32, ptr @hf_gsm_a_gmm_ptmsi_sig2, align 4
  %9 = tail call ptr @proto_tree_add_item(ptr noundef %1, i32 noundef %8, ptr noundef %0, i32 noundef %3, i32 noundef 3, i32 noundef 0)
  %.not = icmp eq ptr %5, null
  %10 = select i1 %.not, ptr @.str.83, ptr %5
  tail call void (ptr, ptr, ...) @proto_item_append_text(ptr noundef %9, ptr noundef nonnull @.str.1083, ptr noundef nonnull %10)
  %11 = add i32 %3, 3
  %12 = icmp ugt i32 %4, 3
  br i1 %12, label %13, label %17

13:                                               ; preds = %7
  %14 = add i32 %4, -3
  %15 = tail call ptr @proto_tree_add_expert(ptr noundef %1, ptr noundef %2, ptr noundef nonnull @ei_gsm_a_gm_extraneous_data, ptr noundef %0, i32 noundef %11, i32 noundef %14)
  %16 = add i32 %4, %3
  br label %17

17:                                               ; preds = %13, %7
  %.0 = phi i32 [ %16, %13 ], [ %11, %7 ]
  %18 = sub i32 %.0, %3
  %19 = trunc i32 %18 to i16
  ret i16 %19
}